# SymbolsHelper-Confirmed: 5.0.0 amd64
libKF5FileMetaData.so.1 libkf5filemetadata1 #MINVER#, libkf5filemetadata-bin
 _ZN13KFileMetaData12PropertyInfo8fromNameERK7QString@Base 5.0.0
 _ZN13KFileMetaData12PropertyInfoC1ENS_8Property8PropertyE@Base 5.0.0
 _ZN13KFileMetaData12PropertyInfoC1ERKS0_@Base 5.0.0
 _ZN13KFileMetaData12PropertyInfoC2ENS_8Property8PropertyE@Base 5.0.0
 _ZN13KFileMetaData12PropertyInfoC2ERKS0_@Base 5.0.0
 _ZN13KFileMetaData12PropertyInfoD1Ev@Base 5.0.0
 _ZN13KFileMetaData12PropertyInfoD2Ev@Base 5.0.0
 _ZN13KFileMetaData15ExtractorPlugin11qt_metacallEN11QMetaObject4CallEiPPv@Base 5.0.0
 _ZN13KFileMetaData15ExtractorPlugin11qt_metacastEPKc@Base 5.0.0
 _ZN13KFileMetaData15ExtractorPlugin16staticMetaObjectE@Base 5.0.0
 _ZN13KFileMetaData15ExtractorPlugin18contactsFromStringERK7QString@Base 5.0.0
 _ZN13KFileMetaData15ExtractorPlugin18dateTimeFromStringERK7QString@Base 5.0.0
 _ZN13KFileMetaData15ExtractorPluginC1EP7QObject@Base 5.0.0
 _ZN13KFileMetaData15ExtractorPluginC2EP7QObject@Base 5.0.0
 _ZN13KFileMetaData15ExtractorPluginD0Ev@Base 5.0.0
 _ZN13KFileMetaData15ExtractorPluginD1Ev@Base 5.0.0
 _ZN13KFileMetaData15ExtractorPluginD2Ev@Base 5.0.0
 _ZN13KFileMetaData16ExtractionResultC1ERK7QStringS3_RK6QFlagsINS0_4FlagEE@Base 5.0.0
 _ZN13KFileMetaData16ExtractionResultC1ERKS0_@Base 5.0.0
 _ZN13KFileMetaData16ExtractionResultC2ERK7QStringS3_RK6QFlagsINS0_4FlagEE@Base 5.0.0
 _ZN13KFileMetaData16ExtractionResultC2ERKS0_@Base 5.0.0
 _ZN13KFileMetaData16ExtractionResultD0Ev@Base 5.0.0
 _ZN13KFileMetaData16ExtractionResultD1Ev@Base 5.0.0
 _ZN13KFileMetaData16ExtractionResultD2Ev@Base 5.0.0
 _ZN13KFileMetaData22ExtractorPluginManagerC1EP7QObject@Base 5.0.0
 _ZN13KFileMetaData22ExtractorPluginManagerC2EP7QObject@Base 5.0.0
 _ZN13KFileMetaData22ExtractorPluginManagerD0Ev@Base 5.0.0
 _ZN13KFileMetaData22ExtractorPluginManagerD1Ev@Base 5.0.0
 _ZN13KFileMetaData22ExtractorPluginManagerD2Ev@Base 5.0.0
 _ZN13KFileMetaData8TypeInfoC1ENS_4Type4TypeE@Base 5.0.0
 _ZN13KFileMetaData8TypeInfoC1ERKS0_@Base 5.0.0
 _ZN13KFileMetaData8TypeInfoC2ENS_4Type4TypeE@Base 5.0.0
 _ZN13KFileMetaData8TypeInfoC2ERKS0_@Base 5.0.0
 _ZN13KFileMetaData8TypeInfoD1Ev@Base 5.0.0
 _ZN13KFileMetaData8TypeInfoD2Ev@Base 5.0.0
 _ZNK13KFileMetaData12PropertyInfo11displayNameEv@Base 5.0.0
 _ZNK13KFileMetaData12PropertyInfo15shouldBeIndexedEv@Base 5.0.0
 _ZNK13KFileMetaData12PropertyInfo4nameEv@Base 5.0.0
 _ZNK13KFileMetaData12PropertyInfo8propertyEv@Base 5.0.0
 _ZNK13KFileMetaData12PropertyInfo9valueTypeEv@Base 5.0.0
 _ZNK13KFileMetaData15ExtractorPlugin10metaObjectEv@Base 5.0.0
 _ZNK13KFileMetaData16ExtractionResult10inputFlagsEv@Base 5.0.0
 _ZNK13KFileMetaData16ExtractionResult13inputMimetypeEv@Base 5.0.0
 _ZNK13KFileMetaData16ExtractionResult8inputUrlEv@Base 5.0.0
 _ZNK13KFileMetaData22ExtractorPluginManager15fetchExtractorsERK7QString@Base 5.0.0
 _ZNK13KFileMetaData22ExtractorPluginManager7Private13allExtractorsEv@Base 5.0.0
 _ZNK13KFileMetaData8TypeInfo11displayNameEv@Base 5.0.0
 _ZNK13KFileMetaData8TypeInfo4nameEv@Base 5.0.0
 _ZTIN13KFileMetaData15ExtractorPluginE@Base 5.0.0
 _ZTIN13KFileMetaData16ExtractionResultE@Base 5.0.0
 _ZTIN13KFileMetaData22ExtractorPluginManagerE@Base 5.0.0
 _ZTSN13KFileMetaData15ExtractorPluginE@Base 5.0.0
 _ZTSN13KFileMetaData16ExtractionResultE@Base 5.0.0
 _ZTSN13KFileMetaData22ExtractorPluginManagerE@Base 5.0.0
 _ZTVN13KFileMetaData15ExtractorPluginE@Base 5.0.0
 _ZTVN13KFileMetaData16ExtractionResultE@Base 5.0.0
 _ZTVN13KFileMetaData22ExtractorPluginManagerE@Base 5.0.0
